; ModuleID = 'bench/sdl/original/s_isinff.ll'
source_filename = "bench/sdl/original/s_isinff.ll"
target datalayout = "e-m:e-p270:32:32-p271:32:32-p272:64:64-i64:64-i128:128-f80:128-n8:16:32:64-S128"
target triple = "x86_64-pc-linux-gnu"

; Function Attrs: mustprogress nofree norecurse nosync nounwind willreturn memory(none) uwtable
define hidden noundef range(i32 -2, 2) i32 @SDL_uclibc_isinff(float noundef %0) local_unnamed_addr #0 {
  %2 = bitcast float %0 to i32
  %3 = tail call float @llvm.fabs.f32(float %0)
  %isnotneg = fcmp oeq float %3, 0x7FF0000000000000
  %4 = ashr i32 %2, 30
  %5 = select i1 %isnotneg, i32 %4, i32 0
  ret i32 %5
}

; Function Attrs: nocallback nofree nosync nounwind speculatable willreturn memory(none)
declare float @llvm.fabs.f32(float) #1


!llvm.module.flags = !{!0, !1, !2, !3}

!0 = !{i32 1, !"wchar_size", i32 4}
!1 = !{i32 8, !"PIC Level", i32 2}
!2 = !{i32 7, !"PIE Level", i32 2}
!3 = !{i32 7, !"uwtable", i32 2}
